# File generated by CompCert 2.4
# Command line: -fno-peeps -stdlib ../../runtime -dc -dclight -dasm -S -o almabench.handtuned.s almabench.c
	.section	.rodata
	.align	1
__stringlit_1:
	.ascii	"p = %d  position[0] = %g  position[1] = %g\012\000"
	.type	__stringlit_1, @object
	.size	__stringlit_1, . - __stringlit_1
	.section	.rodata
	.align	4
	.global	amas
amas:
	.quad	4708225802225844224 # 6023600
	.quad	4690761992753905664 # 408523.5
	.quad	4689394080029868032 # 328900.5
	.quad	4703908840402321408 # 3098710
	.quad	4652321131449989202 # 1047.35500000000002
	.quad	4659911697933271040 # 3498.5
	.quad	4672015396809736192 # 22869
	.quad	4671038205850550272 # 19314
	.type	amas, @object
	.size	amas, . - amas
	.section	.rodata
	.align	4
	.global	a
a:
	.quad	4600644963132990035 # 0.387098309799999984
	.quad	0 # 0
	.quad	0 # 0
	.quad	4604690395360912352 # 0.723329820000000012
	.quad	0 # 0
	.quad	0 # 0
	.quad	4607182423383781109 # 1.00000101780000006
	.quad	0 # 0
	.quad	0 # 0
	.quad	4609540860889059875 # 1.52367934190000009
	.quad	4464366475030941260 # 2.99999999999999998e-10
	.quad	0 # 0
	.quad	4617543628895965321 # 5.2026032092000003
	.quad	4521627842030120591 # 1.91320000000000016e-06
	.quad	-4742079196552005730 # -3.90000000000000018e-09
	.quad	4621568553739058191 # 9.55490919150000018
	.quad	-4686437716087432547 # -2.13895999999999993e-05
	.quad	4496798366787245704 # 4.44000000000000005e-08
	.quad	4626102729339789050 # 19.2184460618000017
	.quad	-4712753083944142367 # -3.71600000000000019e-07
	.quad	4501989542974522020 # 9.78999999999999965e-08
	.quad	4629168538124942103 # 30.1103868693999992
	.quad	-4702909553585285161 # -1.66350000000000004e-06
	.quad	4499775697567352731 # 6.86000000000000055e-08
	.type	a, @object
	.size	a, . - a
	.section	.rodata
	.align	4
	.global	dlm
dlm:
	.quad	4643079306283800870 # 252.250905520000003
	.quad	4752436411782544564 # 5381016286.8898201
	.quad	-4612010772996517590 # -1.9278900000000001
	.quad	4640606861589998330 # 181.979800850000004
	.quad	4746622702294759553 # 2106641364.33547997
	.quad	4603523784534734164 # 0.593809999999999949
	.quad	4636770115335976482 # 100.466456829999998
	.quad	4743222531282265346 # 1295977422.83429003
	.quad	-4611586691537606248 # -2.04410999999999987
	.quad	4644960459646547074 # 355.432999580000001
	.quad	4739063385209458173 # 689050774.939880013
	.quad	4606665765850765465 # 0.942640000000000033
	.quad	4630031363778157974 # 34.351518740000003
	.quad	4727104496048447674 # 109256603.779909998
	.quad	-4594064620909888872 # -30.6037800000000004
	.quad	4632244591043535229 # 50.0774443000000034
	.quad	4721173866246136880 # 43996098.5573199987
	.quad	4635021429748232314 # 75.6161400000000015
	.quad	4644232530269686018 # 314.055005110000025
	.quad	4714542743455464906 # 15424811.9393300004
	.quad	-4612808180346539810 # -1.75083000000000011
	.quad	4644061774537104770 # 304.348665480000022
	.quad	4710203530735432300 # 7865503.20744000003
	.quad	4596771177325447390 # 0.211029999999999995
	.type	dlm, @object
	.size	dlm, . - dlm
	.section	.rodata
	.align	4
	.global	e
e:
	.quad	4596576684965614640 # 0.205631752599999995
	.quad	4551660704743679988 # 0.000204065300000000013
	.quad	-4699567892231024741 # -2.83490000000000017e-06
	.quad	4574457510198642727 # 0.00677191640000000036
	.quad	-4665925287165604926 # -0.000477652099999999994
	.quad	4531910021205655351 # 9.81270000000000009e-06
	.quad	4580473157328871291 # 0.0167086341999999992
	.quad	-4666982040259332303 # -0.000420365399999999992
	.quad	-4689773356424427308 # -1.26733999999999997e-05
	.quad	4591394646618011056 # 0.0934006477000000057
	.quad	4561484934274212871 # 0.000904843799999999958
	.quad	-4692494206903113690 # -8.06409999999999958e-06
	.quad	4587150108690515778 # 0.048497925499999997
	.quad	4565170266771601333 # 0.00163225419999999993
	.quad	-4681291077719047795 # -4.71365999999999986e-05
	.quad	4588166152053857894 # 0.0555481426000000028
	.quad	-4653232625825098354 # -0.00346640620000000007
	.quad	-4678994394901772503 # -6.43639000000000022e-05
	.quad	4586845059581923975 # 0.0463812221000000011
	.quad	-4669701756263258152 # -0.000272929299999999982
	.quad	4530775826835632134 # 7.89130000000000015e-06
	.quad	4576604488810264280 # 0.00945574700000000046
	.quad	4544027415298200068 # 6.03262999999999987e-05
	.quad	0 # 0
	.type	e, @object
	.size	e, . - e
	.section	.rodata
	.align	4
	.global	pi
pi:
	.quad	4635150906762590338 # 77.4561190400000044
	.quad	4663010249133741467 # 5719.11589999999978
	.quad	-4606247741733352935 # -4.83016000000000023
	.quad	4638833002843976967 # 131.563703000000004
	.quad	4640378395358369992 # 175.486400000000003
	.quad	-4575895035394122119 # -498.481839999999977
	.quad	4636943988850238561 # 102.937348080000007
	.quad	4667609572848157537 # 11612.3528999999999
	.quad	4632694715369495525 # 53.2757700000000014
	.quad	4644619650349389246 # 336.060233949999997
	.quad	4670010964616292640 # 15980.4590800000005
	.quad	-4589403333371065532 # -62.328000000000003
	.quad	4624257370294696087 # 14.3312068700000008
	.quad	4665252852335303857 # 7758.75162999999975
	.quad	4643280869968561916 # 259.95938000000001
	.quad	4636248737874980134 # 93.0572374799999977
	.quad	4671335484764845150 # 20395.4943899999998
	.quad	4640898178309362958 # 190.259520000000009
	.quad	4640291099098232104 # 173.00529105999999
	.quad	4659289511527020505 # 3215.56237999999985
	.quad	-4593377073243276821 # -34.092880000000001
	.quad	4631969144027965317 # 48.1202755400000015
	.quad	4652335927006218137 # 1050.71911999999998
	.quad	4628404835469816779 # 27.3971699999999991
	.type	pi, @object
	.size	pi, . - pi
	.section	.rodata
	.align	4
	.global	dinc
dinc:
	.quad	4619572931793696766 # 7.00498624999999997
	.quad	-4581629547260802729 # -214.256290000000007
	.quad	4598891652173998515 # 0.289770000000000028
	.quad	4614826517811443820 # 3.39466189000000007
	.quad	-4593996900845242055 # -30.8443700000000014
	.quad	-4600608086581980095 # -11.6783599999999996
	.quad	0 # 0
	.quad	4646975466708322736 # 469.972890000000007
	.quad	-4608644895225011566 # -3.35053000000000001
	.quad	4611009246658712251 # 1.84972647999999995
	.quad	-4579504329558894030 # -293.31722000000002
	.quad	-4602612222193157171 # -8.11829999999999963
	.quad	4608548211858139184 # 1.30326698000000007
	.quad	-4588636109990170880 # -71.5588999999999942
	.quad	4622918541959504740 # 11.9529700000000005
	.quad	4612786875573106575 # 2.48887877999999985
	.quad	4636163923308639473 # 91.8519500000000022
	.quad	-4597707337765239128 # -17.6622500000000002
	.quad	4605139557996652469 # 0.773196890000000026
	.quad	-4589628621720300091 # -60.7272299999999987
	.quad	4608342501028031774 # 1.25758999999999999
	.quad	4610649976997434356 # 1.76995258999999994
	.quad	4620762646299884346 # 8.12332999999999927
	.quad	4590526305938150366 # 0.0813500000000000056
	.type	dinc, @object
	.size	dinc, . - dinc
	.section	.rodata
	.align	4
	.global	omega
omega:
	.quad	4631998785805918995 # 48.3308930399999994
	.quad	-4561685488263382937 # -4515.2172700000001
	.quad	-4593728218906222899 # -31.798919999999999
	.quad	4635096286624283691 # 76.6799201900000043
	.quad	-4556644201611506724 # -10008.4815400000007
	.quad	-4590951707514702481 # -51.3261400000000023
	.quad	4640356819448887784 # 174.873175769999989
	.quad	-4557374943196591770 # -8679.27033999999912
	.quad	4624826345574652361 # 15.3419100000000004
	.quad	4632171498875554027 # 49.5580932100000027
	.quad	-4556307520518804273 # -10620.9008799999992
	.quad	-4581055413251025540 # -230.574160000000006
	.quad	4636769971093420979 # 100.464407019999996
	.quad	4663717146830612841 # 6362.03560999999991
	.quad	4644451848092924751 # 326.521779999999978
	.quad	4637698915605525391 # 113.665502520000004
	.quad	-4557066569173682922 # -9240.19942000000083
	.quad	-4589010575151249993 # -66.2374300000000034
	.quad	4634908123193329778 # 74.005957010000003
	.quad	4658087938721956663 # 2669.15032999999994
	.quad	4639338811160510574 # 145.939639999999997
	.quad	4638840755861807917 # 131.784057020000006
	.quad	-4581359087455461924 # -221.943219999999997
	.quad	-4618105629480226904 # -0.78727999999999998
	.type	omega, @object
	.size	omega, . - omega
	.section	.rodata
	.align	4
	.global	kp
kp:
	.quad	4679520182144598016 # 69613
	.quad	4679934698028269568 # 75645
	.quad	4680804755323224064 # 88306
	.quad	4678465269457223680 # 59899
	.quad	4669882069373943808 # 15746
	.quad	4679621474653306880 # 71087
	.quad	4684125039920939008 # 142173
	.quad	4659004600840355840 # 3086
	.quad	0 # 0
	.quad	4671738869635350528 # 21863
	.quad	4674739986623365120 # 32794
	.quad	4673132775501463552 # 26934
	.quad	4667234995130073088 # 10931
	.quad	4672944759013113856 # 26250
	.quad	4676242331823767552 # 43725
	.quad	4677636237689880576 # 53867
	.quad	4673683905704886272 # 28939
	.quad	0 # 0
	.quad	4670022806862299136 # 16002
	.quad	4671738869635350528 # 21863
	.quad	4674526406489669632 # 32004
	.quad	4667234995130073088 # 10931
	.quad	4669213016548442112 # 14529
	.quad	4670224017490182144 # 16368
	.quad	4669646773885599744 # 15318
	.quad	4674739986623365120 # 32794
	.quad	0 # 0
	.quad	4663698415979331584 # 6345
	.quad	4665317996607045632 # 7818
	.quad	4669821596234416128 # 15636
	.quad	4664503258490863616 # 7077
	.quad	4665720417862811648 # 8184
	.quad	4669011805920559104 # 14163
	.quad	4652583452934144000 # 1107
	.quad	4662078835351617536 # 4872
	.quad	0 # 0
	.quad	4655455377305894912 # 1760
	.quad	4654109575073497088 # 1454
	.quad	4652847335724810240 # 1167
	.quad	4650951777678524416 # 880
	.quad	4643756573586358272 # 287
	.quad	4658023836468379648 # 2640
	.quad	4626041242239631360 # 19
	.quad	4656717616654581760 # 2047
	.quad	4654109575073497088 # 1454
	.quad	4648260173213728768 # 574
	.quad	0 # 0
	.quad	4650951777678524416 # 880
	.quad	4643756573586358272 # 287
	.quad	4626041242239631360 # 19
	.quad	4655455377305894912 # 1760
	.quad	4652847335724810240 # 1167
	.quad	4644090825121202176 # 306
	.quad	4648260173213728768 # 574
	.quad	4641381628470362112 # 204
	.quad	0 # 0
	.quad	4640431650423963648 # 177
	.quad	4653278344282898432 # 1265
	.quad	4616189618054758400 # 4
	.quad	4645480607818711040 # 385
	.quad	4641240890982006784 # 200
	.quad	4641522365958717440 # 208
	.quad	4641381628470362112 # 204
	.quad	0 # 0
	.quad	4636878028842991616 # 102
	.quad	4637159503819702272 # 106
	.quad	4616189618054758400 # 4
	.quad	4636596553866280960 # 98
	.quad	4653726945027031040 # 1367
	.quad	4647275010795241472 # 487
	.quad	4641381628470362112 # 204
	.quad	0 # 0
	.type	kp, @object
	.size	kp, . - kp
	.section	.rodata
	.align	4
	.global	ca
ca:
	.quad	4616189618054758400 # 4
	.quad	-4599864069405540352 # -13
	.quad	4622382067542392832 # 11
	.quad	-4602115869219225600 # -9
	.quad	-4602115869219225600 # -9
	.quad	-4609434218613702656 # -3
	.quad	-4616189618054758400 # -1
	.quad	4616189618054758400 # 4
	.quad	0 # 0
	.quad	-4583679258244677632 # -156
	.quad	4633500329122463744 # 59
	.quad	-4592264245034352640 # -42
	.quad	4618441417868443648 # 6
	.quad	4626041242239631360 # 19
	.quad	-4597049319638433792 # -20
	.quad	-4601552919265804288 # -10
	.quad	-4600427019358961664 # -12
	.quad	0 # 0
	.quad	4634204016564240384 # 64
	.quad	-4583819995733032960 # -152
	.quad	4633922541587529728 # 62
	.quad	-4602678819172646912 # -8
	.quad	4629700416936869888 # 32
	.quad	-4592404982522707968 # -41
	.quad	4626041242239631360 # 19
	.quad	-4600989969312382976 # -11
	.quad	0 # 0
	.quad	4638426141214900224 # 124
	.quad	4648673589585772544 # 621
	.quad	-4584066286337654784 # -145
	.quad	4641522365958717440 # 208
	.quad	4632796641680687104 # 54
	.quad	-4590153182709022720 # -57
	.quad	4629137466983448576 # 30
	.quad	4624633867356078080 # 15
	.quad	0 # 0
	.quad	-4551200509393895424 # -23437
	.quad	-4565361394525929472 # -2634
	.quad	4663979890956042240 # 6601
	.quad	4663603857979342848 # 6259
	.quad	-4569029365316190208 # -1507
	.quad	-4567648378711703552 # -1821
	.quad	4657979856003268608 # 2620
	.quad	-4566502687595560960 # -2115
	.quad	-4569108530153390080 # -1489
	.quad	4678879235585081344 # 62911
	.quad	-4540394852713496576 # -119919
	.quad	4680188341616902144 # 79336
	.quad	4670625888990134272 # 17814
	.quad	-4550979507556712448 # -24241
	.quad	4667860067490463744 # 12068
	.quad	4665791886118617088 # 8306
	.quad	-4561270111758974976 # -4893
	.quad	4666119540583694336 # 8902
	.quad	4690427629549912064 # 389061
	.quad	-4535125477597118464 # -262125
	.quad	-4547079814690897920 # -44088
	.quad	4665836416339542016 # 8387
	.quad	-4551327228108996608 # -22976
	.quad	-4566551066107183104 # -2093
	.quad	-4574751223827136512 # -615
	.quad	-4556802796015321088 # -9720
	.quad	4664015075328131072 # 6633
	.quad	-4532546281016393728 # -412235
	.quad	-4538735964545089536 # -157046
	.quad	-4549003410283692032 # -31430
	.quad	4675430342486654976 # 37817
	.quad	-4556791800899043328 # -9740
	.quad	-4599864069405540352 # -13
	.quad	-4558459760038379520 # -7449
	.quad	4666527459397599232 # 9644
	.quad	0 # 0
	.type	ca, @object
	.size	ca, . - ca
	.section	.rodata
	.align	4
	.global	sa
sa:
	.quad	-4594516044848037888 # -29
	.quad	-4616189618054758400 # -1
	.quad	4621256167635550208 # 9
	.quad	4618441417868443648 # 6
	.quad	-4604930618986332160 # -6
	.quad	4617315517961601024 # 5
	.quad	4616189618054758400 # 4
	.quad	0 # 0
	.quad	0 # 0
	.quad	-4591419820104220672 # -48
	.quad	-4584875526895697920 # -125
	.quad	-4595360469778169856 # -26
	.quad	-4592967932476129280 # -37
	.quad	4625759767262920704 # 18
	.quad	-4599864069405540352 # -13
	.quad	-4597049319638433792 # -20
	.quad	-4611686018427387904 # -2
	.quad	0 # 0
	.quad	-4583890364477210624 # -150
	.quad	-4591701295080931328 # -46
	.quad	4634485491540951040 # 68
	.quad	4632796641680687104 # 54
	.quad	4624070917402656768 # 14
	.quad	4627448617123184640 # 24
	.quad	-4594797519824748544 # -28
	.quad	4626885667169763328 # 22
	.quad	0 # 0
	.quad	-4574698447269003264 # -621
	.quad	4647890737306796032 # 532
	.quad	-4574056332478382080 # -694
	.quad	-4597049319638433792 # -20
	.quad	4640959416005296128 # 192
	.quad	-4587056957965205504 # -94
	.quad	4634696597773484032 # 71
	.quad	-4588534701592936448 # -73
	.quad	0 # 0
	.quad	-4554112291062153216 # -14614
	.quad	-4552192543760056320 # -19828
	.quad	-4560196988410265600 # -5869
	.quad	4655987540933738496 # 1881
	.quad	-4561842957317046272 # -4372
	.quad	-4566194824339783680 # -2255
	.quad	4650089760562348032 # 782
	.quad	4651391582329634816 # 930
	.quad	4651242048748257280 # 913
	.quad	4684041339598274560 # 139737
	.quad	0 # 0
	.quad	4672509627286421504 # 24667
	.quad	4677259105201553408 # 51123
	.quad	-4561040313828769792 # -5102
	.quad	4664890286583840768 # 7429
	.quad	-4562148621549568000 # -4095
	.quad	-4566966681502482432 # -1976
	.quad	-4556887458410659840 # -9566
	.quad	-4539387596983238656 # -138081
	.quad	0 # 0
	.quad	4675346229847130112 # 37205
	.quad	-4546399354432258048 # -49039
	.quad	-4547380393682141184 # -41901
	.quad	-4548483891039567872 # -33872
	.quad	-4550210948928897024 # -27037
	.quad	-4555288768503873536 # -12474
	.quad	4670896093972660224 # 18797
	.quad	0 # 0
	.quad	4673561035280482304 # 28492
	.quad	4683817966939144192 # 133236
	.quad	4679522999643144192 # 69654
	.quad	4677423894506766336 # 52322
	.quad	-4546325412275290112 # -49577
	.quad	-4550377799818412032 # -26430
	.quad	-4563252531223855104 # -3593
	.quad	0 # 0
	.type	sa, @object
	.size	sa, . - sa
	.section	.rodata
	.align	4
	.global	kq
kq:
	.quad	4659004600840355840 # 3086
	.quad	4669882069373943808 # 15746
	.quad	4679520182144598016 # 69613
	.quad	4678465269457223680 # 59899
	.quad	4679934698028269568 # 75645
	.quad	4680804755323224064 # 88306
	.quad	4668186072688099328 # 12661
	.quad	4658063418886979584 # 2658
	.quad	0 # 0
	.quad	0 # 0
	.quad	4671738869635350528 # 21863
	.quad	4674739986623365120 # 32794
	.quad	4667234995130073088 # 10931
	.quad	4634837335261839360 # 73
	.quad	4661545572212146176 # 4387
	.quad	4673132775501463552 # 26934
	.quad	4654193137957208064 # 1473
	.quad	4656961708235948032 # 2157
	.quad	0 # 0
	.quad	0 # 0
	.quad	4621819117588971520 # 10
	.quad	4670022806862299136 # 16002
	.quad	4671738869635350528 # 21863
	.quad	4667234995130073088 # 10931
	.quad	4654193137957208064 # 1473
	.quad	4674526406489669632 # 32004
	.quad	4661545572212146176 # 4387
	.quad	4634837335261839360 # 73
	.quad	0 # 0
	.quad	0 # 0
	.quad	4621819117588971520 # 10
	.quad	4663698415979331584 # 6345
	.quad	4665317996607045632 # 7818
	.quad	4652583452934144000 # 1107
	.quad	4669821596234416128 # 15636
	.quad	4664503258490863616 # 7077
	.quad	4665720417862811648 # 8184
	.quad	4647890737306796032 # 532
	.quad	4621819117588971520 # 10
	.quad	0 # 0
	.quad	4626041242239631360 # 19
	.quad	4655455377305894912 # 1760
	.quad	4654109575073497088 # 1454
	.quad	4643756573586358272 # 287
	.quad	4652847335724810240 # 1167
	.quad	4650951777678524416 # 880
	.quad	4648260173213728768 # 574
	.quad	4658023836468379648 # 2640
	.quad	4626041242239631360 # 19
	.quad	4654109575073497088 # 1454
	.quad	4626041242239631360 # 19
	.quad	4648260173213728768 # 574
	.quad	4643756573586358272 # 287
	.quad	4644090825121202176 # 306
	.quad	4655455377305894912 # 1760
	.quad	4622945017495814144 # 12
	.quad	4629418941960159232 # 31
	.quad	4630544841867001856 # 38
	.quad	4626041242239631360 # 19
	.quad	4648260173213728768 # 574
	.quad	4616189618054758400 # 4
	.quad	4641381628470362112 # 204
	.quad	4640431650423963648 # 177
	.quad	4620693217682128896 # 8
	.quad	4629418941960159232 # 31
	.quad	4641240890982006784 # 200
	.quad	4653278344282898432 # 1265
	.quad	4636878028842991616 # 102
	.quad	4616189618054758400 # 4
	.quad	4641381628470362112 # 204
	.quad	4616189618054758400 # 4
	.quad	4636878028842991616 # 102
	.quad	4637159503819702272 # 106
	.quad	4620693217682128896 # 8
	.quad	4636596553866280960 # 98
	.quad	4653726945027031040 # 1367
	.quad	4647275010795241472 # 487
	.quad	4641381628470362112 # 204
	.quad	4616189618054758400 # 4
	.quad	4636878028842991616 # 102
	.type	kq, @object
	.size	kq, . - kq
	.section	.rodata
	.align	4
	.global	cl
cl:
	.quad	4626604192193052672 # 21
	.quad	-4586986589221027840 # -95
	.quad	-4583644073872588800 # -157
	.quad	4630967054332067840 # 41
	.quad	-4606056518893174784 # -5
	.quad	4631107791820423168 # 42
	.quad	4627167142146473984 # 23
	.quad	4629137466983448576 # 30
	.quad	0 # 0
	.quad	0 # 0
	.quad	-4583538520756322304 # -160
	.quad	-4579158066431262720 # -313
	.quad	-4580899692849659904 # -235
	.quad	4633641066610819072 # 60
	.quad	-4588464332848758784 # -74
	.quad	-4588323595360403456 # -76
	.quad	-4595078994801459200 # -27
	.quad	4629981891913580544 # 34
	.quad	0 # 0
	.quad	0 # 0
	.quad	-4578946960198729728 # -325
	.quad	-4578999736756862976 # -322
	.quad	-4588112489127870464 # -79
	.quad	4642366790888849408 # 232
	.quad	-4590856870150799360 # -52
	.quad	4636526185122103296 # 97
	.quad	4632937379169042432 # 55
	.quad	-4592404982522707968 # -41
	.quad	0 # 0
	.quad	0 # 0
	.quad	4657205799817314304 # 2268
	.quad	-4571549445967052800 # -979
	.quad	4650265682422792192 # 802
	.quad	4648506463818350592 # 602
	.quad	-4574285030896959488 # -668
	.quad	-4593530882429550592 # -33
	.quad	4644776920376934400 # 345
	.quad	4641276075354095616 # 201
	.quad	-4590434657685733376 # -55
	.quad	0 # 0
	.quad	4665089298188468224 # 7610
	.quad	-4561155762549686272 # -4997
	.quad	-4558195877247713280 # -7689
	.quad	-4560227774735843328 # -5841
	.quad	-4565398777921273856 # -2617
	.quad	4652618637306232832 # 1115
	.quad	-4573581343455182848 # -748
	.quad	-4574821592571314176 # -607
	.quad	4663400448328204288 # 6074
	.quad	4644935250051334144 # 354
	.quad	-4552544112603037696 # -18549
	.quad	4674009910902521856 # 30125
	.quad	4671230070629597184 # 20012
	.quad	-4573739673129582592 # -730
	.quad	4650459196469280768 # 824
	.quad	4627167142146473984 # 23
	.quad	4653383897399164928 # 1289
	.quad	-4578471971175530496 # -352
	.quad	-4554028178422628352 # -14767
	.quad	-4566619235828105216 # -2062
	.quad	-4539485041201250304 # -135245
	.quad	-4554123286178430976 # -14594
	.quad	4661336665002868736 # 4197
	.quad	-4562291558061178880 # -4030
	.quad	-4560459771689304064 # -5630
	.quad	-4564780852386463744 # -2898
	.quad	4657803934142824448 # 2540
	.quad	-4579281211733573632 # -306
	.quad	4658681344421789696 # 2939
	.quad	4656449335817404416 # 1986
	.quad	4680917592704024576 # 89948
	.quad	4656842960980148224 # 2103
	.quad	4666153075688341504 # 8963
	.quad	4658144782747435008 # 2695
	.quad	4660315218700664832 # 3682
	.quad	4654962796096651264 # 1648
	.quad	4650828632376213504 # 866
	.quad	-4583749626988855296 # -154
	.quad	-4567023856107126784 # -1963
	.quad	-4579685832012595200 # -283
	.type	cl, @object
	.size	cl, . - cl
	.section	.rodata
	.align	4
	.global	sl
sl:
	.quad	-4578647893035974656 # -342
	.quad	4638989091168321536 # 136
	.quad	-4596204894708301824 # -23
	.quad	4633922541587529728 # 62
	.quad	4634344754052595712 # 66
	.quad	-4590856870150799360 # -52
	.quad	-4593530882429550592 # -33
	.quad	4625478292286210048 # 17
	.quad	0 # 0
	.quad	0 # 0
	.quad	4647820368562618368 # 524
	.quad	-4583925548849299456 # -149
	.quad	-4593249407452839936 # -35
	.quad	4637933560005656576 # 117
	.quad	4639516856749654016 # 151
	.quad	4638285403726544896 # 122
	.quad	-4588675439081291776 # -71
	.quad	-4589449495267246080 # -62
	.quad	0 # 0
	.quad	0 # 0
	.quad	-4586282901779251200 # -105
	.quad	-4584347761314365440 # -137
	.quad	4643246400191070208 # 258
	.quad	4630122629401935872 # 35
	.quad	-4585508845593296896 # -116
	.quad	-4587479170430271488 # -88
	.quad	-4585790320570007552 # -112
	.quad	-4588042120383692800 # -80
	.quad	0 # 0
	.quad	0 # 0
	.quad	4650723079259947008 # 854
	.quad	-4581955224012324864 # -205
	.quad	-4571927677967007744 # -936
	.quad	-4580723770989215744 # -240
	.quad	4639129828656676864 # 140
	.quad	-4578665485222019072 # -341
	.quad	-4586845851732672512 # -97
	.quad	-4581005245965926400 # -232
	.quad	4647925921678884864 # 536
	.quad	0 # 0
	.quad	-4545307951702736896 # -56980
	.quad	4665535699909345280 # 8016
	.quad	4652112861957455872 # 1012
	.quad	4654083186794430464 # 1448
	.quad	-4564503775456264192 # -3024
	.quad	-4562995245502955520 # -3710
	.quad	4644301931353735168 # 318
	.quad	4647556485771952128 # 503
	.quad	4660502135677386752 # 3767
	.quad	4648286561492795392 # 577
	.quad	4684002478734180352 # 138606
	.quad	-4554736813666729984 # -13478
	.quad	-4561192046433402880 # -4964
	.quad	4654052400468852736 # 1441
	.quad	-4569856198060277760 # -1319
	.quad	-4569139316478967808 # -1482
	.quad	4646219479632576512 # 427
	.quad	4653150800934076416 # 1236
	.quad	-4557106810980401152 # -9167
	.quad	-4567221768200126464 # -1918
	.quad	4679631576416387072 # 71234
	.quad	-4547488283260616704 # -41116
	.quad	4662586809723650048 # 5334
	.quad	-4561223932270608384 # -4935
	.quad	-4567529631455903744 # -1848
	.quad	4634344754052595712 # 66
	.quad	4646342624934887424 # 434
	.quad	-4567969436107014144 # -1748
	.quad	4660530722979708928 # 3780
	.quad	-4573994759827226624 # -701
	.quad	-4546590944333398016 # -47645
	.quad	4667628620292816896 # 11647
	.quad	4656981499445248000 # 2166
	.quad	4659242095351955456 # 3194
	.quad	4649183762981060608 # 679
	.quad	0 # 0
	.quad	-4580583033500860416 # -244
	.quad	-4577293294710554624 # -419
	.quad	-4565587893921251328 # -2531
	.quad	4631952216750555136 # 48
	.type	sl, @object
	.size	sl, . - sl
	.text
	.align	16
	.globl anpm
anpm:
	.cfi_startproc
	subl	$52, %esp
	.cfi_adjust_cfa_offset	52
	leal	56(%esp), %edx
	movl	%edx, 16(%esp)
	movsd	0(%edx), %xmm1
	movsd	%xmm1, 32(%esp)
	movsd	.L100, %xmm4 # 6.28318530717958623
	movsd	32(%esp), %xmm1
	movsd	%xmm1, 0(%esp)
	movsd	%xmm4, 8(%esp)
	call	fmod
	fstpl	24(%esp)
	movsd	24(%esp), %xmm3
	movsd	%xmm3, 0(%esp)
	call	fabs
	fstpl	40(%esp)
	movsd	40(%esp), %xmm5
	movsd	.L101, %xmm0 # 3.14159265358979312
	comisd	%xmm0, %xmm5
	jb	.L102
	xorpd	%xmm7, %xmm7
	movsd	32(%esp), %xmm2
	comisd	%xmm2, %xmm7
	jbe	.L103
	movsd	.L104, %xmm6 # -6.28318530717958623
	jmp	.L105
.L103:
	movsd	.L106, %xmm6 # 6.28318530717958623
.L105:
	movsd	24(%esp), %xmm0
	subsd	%xmm6, %xmm0
	movsd	%xmm0, 24(%esp)
.L102:
	fldl	24(%esp)
	addl	$52, %esp
	ret
	.cfi_endproc
	.type	anpm, @function
	.size	anpm, . - anpm
	.section	.rodata.cst8,"aM",@progbits,8
	.align	8
.L106:	.quad	0x401921fb54442d18
.L104:	.quad	0xc01921fb54442d18
.L101:	.quad	0x400921fb54442d18
.L100:	.quad	0x401921fb54442d18
	.text
	.align	16
	.globl planetpv
planetpv:
	.cfi_startproc
	subl	$140, %esp
	.cfi_adjust_cfa_offset	140
	leal	144(%esp), %edx
	movl	%edx, 16(%esp)
	movl	%ebx, 20(%esp)
	movl	%esi, 24(%esp)
	movl	%edi, 28(%esp)
	movl	0(%edx), %eax
	movl	4(%edx), %ebx
	movl	8(%edx), %esi
	movsd	0(%eax), %xmm4
	movsd	.L107, %xmm0 # 2451545
	subsd	%xmm0, %xmm4
	movsd	8(%eax), %xmm5
	addsd	%xmm5, %xmm4
	movsd	.L108, %xmm3 # 365250
	divsd	%xmm3, %xmm4
	movsd	%xmm4, 32(%esp)
	movl	%ebx, %edx
	sall	$4, %edx
	leal	0(%edx,%ebx,8), %eax
	movsd	a(%eax), %xmm5
	movsd	(a + 8)(%eax), %xmm4
	movsd	(a + 16)(%eax), %xmm0
	movsd	32(%esp), %xmm7
	mulsd	%xmm7, %xmm0
	addsd	%xmm0, %xmm4
	mulsd	%xmm7, %xmm4
	addsd	%xmm4, %xmm5
	movsd	%xmm5, 56(%esp)
	movsd	.L109, %xmm3 # 3600
	movsd	dlm(%eax), %xmm4
	movapd	%xmm3, %xmm0
	mulsd	%xmm4, %xmm0
	movsd	(dlm + 8)(%eax), %xmm4
	movsd	(dlm + 16)(%eax), %xmm2
	movsd	32(%esp), %xmm1
	mulsd	%xmm1, %xmm2
	addsd	%xmm2, %xmm4
	mulsd	%xmm1, %xmm4
	addsd	%xmm4, %xmm0
	movsd	.L110, %xmm4 # 4.84813681109535984e-06
	mulsd	%xmm4, %xmm0
	movsd	%xmm0, 40(%esp)
	movsd	e(%eax), %xmm7
	movsd	(e + 8)(%eax), %xmm1
	movsd	(e + 16)(%eax), %xmm0
	movsd	32(%esp), %xmm2
	mulsd	%xmm2, %xmm0
	addsd	%xmm0, %xmm1
	mulsd	%xmm2, %xmm1
	addsd	%xmm1, %xmm7
	movsd	%xmm7, 88(%esp)
	movsd	pi(%eax), %xmm5
	mulsd	%xmm5, %xmm3
	movsd	(pi + 8)(%eax), %xmm2
	movsd	(pi + 16)(%eax), %xmm5
	movsd	32(%esp), %xmm6
	mulsd	%xmm6, %xmm5
	addsd	%xmm5, %xmm2
	mulsd	%xmm6, %xmm2
	addsd	%xmm2, %xmm3
	mulsd	%xmm4, %xmm3
	movsd	%xmm3, 0(%esp)
	call	anpm
	fstpl	112(%esp)
	movsd	.L111, %xmm1 # 3600
	movl	%ebx, %ecx
	sall	$4, %ecx
	leal	0(%ecx,%ebx,8), %eax
	movsd	dinc(%eax), %xmm2
	movapd	%xmm1, %xmm7
	mulsd	%xmm2, %xmm7
	movapd	%xmm7, %xmm0
	movsd	(dinc + 8)(%eax), %xmm2
	movsd	(dinc + 16)(%eax), %xmm7
	movsd	32(%esp), %xmm3
	mulsd	%xmm3, %xmm7
	addsd	%xmm7, %xmm2
	mulsd	%xmm3, %xmm2
	addsd	%xmm2, %xmm0
	movapd	%xmm0, %xmm6
	movsd	.L112, %xmm3 # 4.84813681109535984e-06
	mulsd	%xmm3, %xmm6
	movsd	%xmm6, 128(%esp)
	movsd	omega(%eax), %xmm4
	mulsd	%xmm4, %xmm1
	movsd	(omega + 8)(%eax), %xmm2
	movsd	(omega + 16)(%eax), %xmm4
	movsd	32(%esp), %xmm5
	mulsd	%xmm5, %xmm4
	addsd	%xmm4, %xmm2
	mulsd	%xmm5, %xmm2
	addsd	%xmm2, %xmm1
	mulsd	%xmm3, %xmm1
	movsd	%xmm1, 0(%esp)
	call	anpm
	fstpl	96(%esp)
	movsd	.L113, %xmm3 # 0.359536199999999972
	movsd	32(%esp), %xmm4
	mulsd	%xmm4, %xmm3
	movsd	%xmm3, 48(%esp)
	xorl	%edi, %edi
.L114:
	movl	%ebx, %edx
	sall	$6, %edx
	leal	0(%edx,%ebx,8), %eax
	leal	kp(%eax), %eax
	movsd	0(%eax,%edi,8), %xmm2
	movsd	48(%esp), %xmm3
	mulsd	%xmm3, %xmm2
	movsd	%xmm2, 72(%esp)
	movl	%ebx, %eax
	sall	$4, %eax
	leal	0(%eax,%edx,1), %eax
	leal	kq(%eax), %edx
	movsd	0(%edx,%edi,8), %xmm4	
	mulsd	%xmm3, %xmm4
	movsd	%xmm4, 64(%esp)	
	movsd	%xmm2, 0(%esp)
	call	cos
	fstpl	80(%esp)
	movsd	72(%esp), %xmm3
	movsd	%xmm3, 0(%esp)
	call	sin
	fstpl	72(%esp)
	movsd	72(%esp), %xmm1
	movl	%ebx, %eax
	sall	$6, %eax
	leal	0(%eax,%ebx,8), %edx
	leal	ca(%edx), %eax
	movsd	0(%eax,%edi,8), %xmm0
	mulsd	80(%esp), %xmm0	
	leal	sa(%edx), %edx
	movsd	0(%edx,%edi,8), %xmm3
	mulsd	%xmm1, %xmm3
	addsd	%xmm3, %xmm0	
	mulsd	.L115, %xmm0
	movsd	56(%esp), %xmm6
	addsd	%xmm0, %xmm6
	movsd	%xmm6, 56(%esp)
	movsd	64(%esp), %xmm7
	movsd	%xmm7, 0(%esp)
	call	cos
	fstpl	72(%esp)
	movsd	64(%esp), %xmm2
	movsd	%xmm2, 0(%esp)
	call	sin
	fstpl	64(%esp)
	movsd	64(%esp), %xmm7
	movl	%ebx, %eax
	sall	$4, %eax
	movl	%ebx, %ecx
	sall	$6, %ecx
	leal	0(%eax,%ecx,1), %eax
	leal	cl(%eax), %edx
	movsd	0(%edx,%edi,8), %xmm6
	mulsd	72(%esp), %xmm6	
	leal	sl(%eax), %eax
	movsd	0(%eax,%edi,8), %xmm3
	mulsd	%xmm7, %xmm3
	addsd	%xmm3, %xmm6	
	mulsd	.L116, %xmm6
	movsd	40(%esp), %xmm5
	addsd	%xmm6, %xmm5
	movsd	%xmm5, 40(%esp)
	leal	1(%edi), %edi
	cmpl	$8, %edi
	jl	.L114
	leal	0(%ecx,%ebx,8), %edx
	movsd	(kp + 64)(%edx), %xmm0
	movsd	48(%esp), %xmm1
	mulsd	%xmm1, %xmm0
	movsd	%xmm0, 72(%esp)
	movsd	%xmm0, 0(%esp)
	call	cos
	fstpl	64(%esp)
	movsd	72(%esp), %xmm5
	movsd	%xmm5, 0(%esp)
	call	sin
	fstpl	72(%esp)
	movsd	72(%esp), %xmm3
	movl	%ebx, %edx
	sall	$6, %edx
	leal	0(%edx,%ebx,8), %edx
	movsd	(ca + 64)(%edx), %xmm4
	movsd	64(%esp), %xmm5
	mulsd	%xmm5, %xmm4
	movsd	(sa + 64)(%edx), %xmm5
	mulsd	%xmm3, %xmm5
	addsd	%xmm5, %xmm4
	movsd	32(%esp), %xmm0
	mulsd	%xmm4, %xmm0
	movsd	.L117, %xmm1 # 9.99999999999999955e-08
	mulsd	%xmm1, %xmm0
	movsd	56(%esp), %xmm1
	addsd	%xmm0, %xmm1
	movsd	%xmm1, 72(%esp)
	movl	$8, %edi
.L118:
	movl	%ebx, %edx
	sall	$4, %edx
	movl	%ebx, %ecx
	sall	$6, %ecx
	leal	0(%edx,%ecx,1), %eax
	leal	kq(%eax), %ecx
	movsd	0(%ecx,%edi,8), %xmm5
	movsd	48(%esp), %xmm6
	mulsd	%xmm6, %xmm5
	movsd	%xmm5, 64(%esp)
	movsd	%xmm5, 0(%esp)
	call	cos
	fstpl	56(%esp)
	movsd	64(%esp), %xmm0
	movsd	%xmm0, 0(%esp)
	call	sin
	fstpl	64(%esp)
	movsd	64(%esp), %xmm0
	movl	%ebx, %edx
	movl	%edx, %ecx
	sall	$4, %ecx
	sall	$6, %edx
	leal	0(%ecx,%edx,1), %ecx
	leal	cl(%ecx), %edx
	movsd	0(%edx,%edi,8), %xmm1
	movsd	56(%esp), %xmm2
	mulsd	%xmm2, %xmm1
	leal	sl(%ecx), %ecx
	movsd	0(%ecx,%edi,8), %xmm5
	mulsd	%xmm0, %xmm5
	addsd	%xmm5, %xmm1
	movsd	32(%esp), %xmm2
	mulsd	%xmm1, %xmm2
	movsd	.L119, %xmm3 # 9.99999999999999955e-08
	mulsd	%xmm3, %xmm2
	movsd	40(%esp), %xmm0
	addsd	%xmm2, %xmm0
	movsd	%xmm0, 40(%esp)
	leal	1(%edi), %edi
	cmpl	$9, %edi
	jle	.L118
	movsd	.L120, %xmm7 # 6.28318530717958623
	movsd	40(%esp), %xmm2
	movsd	%xmm2, 0(%esp)
	movsd	%xmm7, 8(%esp)
	call	fmod
	fstpl	32(%esp)
	movsd	32(%esp), %xmm7
	movsd	112(%esp), %xmm4
	subsd	%xmm4, %xmm7
	movsd	%xmm7, 40(%esp)
	movsd	%xmm7, 0(%esp)
	call	sin
	fstpl	32(%esp)
	movsd	32(%esp), %xmm3
	movsd	88(%esp), %xmm2
	mulsd	%xmm3, %xmm2
	movsd	40(%esp), %xmm1
	addsd	%xmm2, %xmm1
	movsd	%xmm1, 32(%esp)
	xorl	%edi, %edi
.L121:
	movsd	32(%esp), %xmm3
	movsd	%xmm3, 0(%esp)
	call	sin
	fstpl	48(%esp)
	movsd	32(%esp), %xmm3
	movsd	%xmm3, 0(%esp)
	call	cos
	fstpl	56(%esp)
	movsd	56(%esp), %xmm4
	movsd	40(%esp), %xmm5
	movsd	32(%esp), %xmm6
	subsd	%xmm6, %xmm5
	movsd	88(%esp), %xmm6
	movsd	48(%esp), %xmm7
	mulsd	%xmm7, %xmm6
	addsd	%xmm6, %xmm5
	movsd	.L122, %xmm6 # 1
	movsd	88(%esp), %xmm2
	mulsd	%xmm4, %xmm2
	subsd	%xmm2, %xmm6
	divsd	%xmm6, %xmm5
	movsd	32(%esp), %xmm2
	addsd	%xmm5, %xmm2
	movsd	%xmm2, 32(%esp)
	leal	1(%edi), %edi
	cmpl	$10, %edi
	jge	.L123
	movsd	%xmm5, 0(%esp)
	call	fabs
	fstpl	48(%esp)
	movsd	48(%esp), %xmm0
	movsd	.L124, %xmm3 # 9.9999999999999998e-13
	comisd	%xmm0, %xmm3
	jbe	.L121
.L123:
	movsd	.L125, %xmm6 # 0.5
	movsd	32(%esp), %xmm5
	mulsd	%xmm6, %xmm5
	movsd	%xmm5, 40(%esp)
	movsd	.L126, %xmm3 # 1
	movsd	88(%esp), %xmm5
	movapd	%xmm3, %xmm4
	addsd	%xmm5, %xmm4
	subsd	%xmm5, %xmm3
	divsd	%xmm3, %xmm4
	movsd	%xmm4, 0(%esp)
	call	sqrt
	fstpl	56(%esp)
	movsd	40(%esp), %xmm2
	movsd	%xmm2, 0(%esp)
	call	sin
	fstpl	48(%esp)
	movsd	40(%esp), %xmm6
	movsd	%xmm6, 0(%esp)
	call	cos
	fstpl	40(%esp)
	movsd	40(%esp), %xmm2
	movsd	56(%esp), %xmm3
	movsd	48(%esp), %xmm4
	mulsd	%xmm4, %xmm3
	movsd	%xmm3, 0(%esp)
	movsd	%xmm2, 8(%esp)
	call	atan2
	fstpl	40(%esp)
	movsd	40(%esp), %xmm1
	addsd	%xmm1, %xmm1
	movsd	%xmm1, 40(%esp)
	movsd	32(%esp), %xmm6
	movsd	%xmm6, 0(%esp)
	call	cos
	fstpl	32(%esp)
	movsd	32(%esp), %xmm7
	movsd	.L127, %xmm4 # 1
	movsd	88(%esp), %xmm6
	mulsd	%xmm7, %xmm6
	movapd	%xmm4, %xmm5
	subsd	%xmm6, %xmm5
	movsd	72(%esp), %xmm7
	mulsd	%xmm5, %xmm7
	movsd	%xmm7, 64(%esp)
	movsd	amas(,%ebx,8), %xmm1
	movapd	%xmm4, %xmm0
	divsd	%xmm1, %xmm0
	addsd	%xmm0, %xmm4
	movsd	72(%esp), %xmm6
	mulsd	%xmm6, %xmm6
	movsd	72(%esp), %xmm5
	mulsd	%xmm5, %xmm6
	divsd	%xmm6, %xmm4
	movsd	%xmm4, 0(%esp)
	call	sqrt
	fstpl	32(%esp)
	movsd	32(%esp), %xmm1
	movsd	.L128, %xmm4 # 0.0172020989500000013
	mulsd	%xmm1, %xmm4
	movsd	%xmm4, 120(%esp)
	movsd	.L129, %xmm2 # 0.5
	movsd	128(%esp), %xmm1
	mulsd	%xmm2, %xmm1
	movsd	%xmm1, 0(%esp)
	call	sin
	fstpl	32(%esp)
	movsd	96(%esp), %xmm0
	movsd	%xmm0, 0(%esp)
	call	cos
	fstpl	48(%esp)
	movsd	48(%esp), %xmm6
	movsd	32(%esp), %xmm7
	mulsd	%xmm6, %xmm7
	movsd	%xmm7, 80(%esp)
	movsd	96(%esp), %xmm5
	movsd	%xmm5, 0(%esp)
	call	sin
	fstpl	48(%esp)
	movsd	48(%esp), %xmm2
	movsd	32(%esp), %xmm3
	mulsd	%xmm2, %xmm3
	movsd	%xmm3, 104(%esp)
	movsd	40(%esp), %xmm6
	movsd	112(%esp), %xmm7
	addsd	%xmm7, %xmm6
	movsd	%xmm6, 32(%esp)
	movsd	%xmm6, 0(%esp)
	call	sin
	fstpl	48(%esp)
	movsd	32(%esp), %xmm4
	movsd	%xmm4, 0(%esp)
	call	cos
	fstpl	40(%esp)
	movsd	104(%esp), %xmm6
	movsd	40(%esp), %xmm7
	mulsd	%xmm7, %xmm6
	movapd	%xmm6, %xmm4
	movsd	80(%esp), %xmm5
	movsd	48(%esp), %xmm6
	mulsd	%xmm6, %xmm5
	subsd	%xmm5, %xmm4
	movapd	%xmm4, %xmm3
	addsd	%xmm3, %xmm3
	movsd	%xmm3, 56(%esp)
	movsd	.L130, %xmm6 # 1
	movsd	88(%esp), %xmm3
	mulsd	%xmm3, %xmm3
	subsd	%xmm3, %xmm6
	movsd	%xmm6, 0(%esp)
	call	sqrt
	fstpl	32(%esp)
	movsd	32(%esp), %xmm7
	movsd	72(%esp), %xmm0
	divsd	%xmm7, %xmm0
	movsd	%xmm0, 32(%esp)
	movsd	.L131, %xmm1 # 0.5
	movsd	128(%esp), %xmm0
	mulsd	%xmm1, %xmm0
	movapd	%xmm0, %xmm1
	movsd	%xmm0, 0(%esp)
	call	cos
	fstpl	72(%esp)
	movsd	112(%esp), %xmm7
	movsd	%xmm7, 0(%esp)
	call	sin
	fstpl	96(%esp)
	movsd	96(%esp), %xmm2
	movsd	88(%esp), %xmm5
	mulsd	%xmm2, %xmm5
	movsd	48(%esp), %xmm3
	addsd	%xmm3, %xmm5
	movsd	32(%esp), %xmm6
	mulsd	%xmm6, %xmm5
	movsd	%xmm5, 96(%esp)
	movsd	112(%esp), %xmm0
	movsd	%xmm0, 0(%esp)
	call	cos
	fstpl	112(%esp)
	movsd	112(%esp), %xmm7
	movsd	88(%esp), %xmm0
	mulsd	%xmm7, %xmm0
	movapd	%xmm0, %xmm1
	movsd	40(%esp), %xmm2
	addsd	%xmm2, %xmm1
	movsd	32(%esp), %xmm3
	mulsd	%xmm3, %xmm1
	movsd	%xmm1, 32(%esp)
	movsd	104(%esp), %xmm7
	addsd	%xmm7, %xmm7
	movsd	80(%esp), %xmm5
	movapd	%xmm7, %xmm0
	mulsd	%xmm5, %xmm0
	movsd	56(%esp), %xmm1
	movsd	104(%esp), %xmm2
	mulsd	%xmm2, %xmm1
	movsd	40(%esp), %xmm6
	subsd	%xmm1, %xmm6
	movsd	64(%esp), %xmm5
	mulsd	%xmm6, %xmm5
	movsd	56(%esp), %xmm1
	movsd	80(%esp), %xmm2
	mulsd	%xmm2, %xmm1
	movsd	48(%esp), %xmm6
	addsd	%xmm1, %xmm6
	movsd	64(%esp), %xmm2
	mulsd	%xmm6, %xmm2
	movsd	56(%esp), %xmm1
	xorpd	__negd_mask, %xmm1
	movsd	72(%esp), %xmm6
	mulsd	%xmm6, %xmm1
	movsd	64(%esp), %xmm4
	mulsd	%xmm1, %xmm4
	movsd	%xmm5, 0(%esi)
	movsd	.L132, %xmm6 # 0.917482062069181814
	movapd	%xmm2, %xmm1
	mulsd	%xmm6, %xmm1
	movsd	.L133, %xmm5 # 0.397777155931913706
	movapd	%xmm4, %xmm3
	mulsd	%xmm5, %xmm3
	subsd	%xmm3, %xmm1
	movsd	%xmm1, 8(%esi)
	movapd	%xmm2, %xmm1
	mulsd	%xmm5, %xmm1
	movapd	%xmm4, %xmm3
	mulsd	%xmm6, %xmm3
	addsd	%xmm3, %xmm1
	movsd	%xmm1, 16(%esi)
	movsd	.L134, %xmm1 # 1
	movsd	.L135, %xmm2 # -1
	movsd	104(%esp), %xmm3
	mulsd	%xmm3, %xmm7
	addsd	%xmm7, %xmm2
	movsd	96(%esp), %xmm7
	mulsd	%xmm7, %xmm2
	movsd	32(%esp), %xmm3
	movapd	%xmm0, %xmm4
	mulsd	%xmm3, %xmm4
	addsd	%xmm4, %xmm2
	movsd	120(%esp), %xmm3
	mulsd	%xmm2, %xmm3
	movsd	80(%esp), %xmm7
	addsd	%xmm7, %xmm7
	movsd	80(%esp), %xmm4
	mulsd	%xmm4, %xmm7
	subsd	%xmm7, %xmm1
	movsd	32(%esp), %xmm2
	mulsd	%xmm2, %xmm1
	movsd	96(%esp), %xmm7
	mulsd	%xmm7, %xmm0
	movapd	%xmm1, %xmm4
	subsd	%xmm0, %xmm4
	movsd	120(%esp), %xmm1
	mulsd	%xmm4, %xmm1
	movsd	72(%esp), %xmm2
	addsd	%xmm2, %xmm2
	movsd	104(%esp), %xmm0
	movsd	96(%esp), %xmm7
	mulsd	%xmm7, %xmm0
	movapd	%xmm0, %xmm7
	movsd	80(%esp), %xmm0
	movsd	32(%esp), %xmm4
	mulsd	%xmm4, %xmm0
	movapd	%xmm0, %xmm4
	addsd	%xmm0, %xmm7
	movapd	%xmm2, %xmm0
	mulsd	%xmm7, %xmm0
	movsd	120(%esp), %xmm4
	mulsd	%xmm0, %xmm4
	movsd	%xmm3, 24(%esi)
	movapd	%xmm1, %xmm7
	mulsd	%xmm6, %xmm7
	movapd	%xmm4, %xmm0
	mulsd	%xmm5, %xmm0
	subsd	%xmm0, %xmm7
	movsd	%xmm7, 32(%esi)
	movapd	%xmm1, %xmm2
	mulsd	%xmm5, %xmm2
	mulsd	%xmm6, %xmm4
	addsd	%xmm4, %xmm2
	movsd	%xmm2, 40(%esi)
	movl	20(%esp), %ebx
	movl	24(%esp), %esi
	movl	28(%esp), %edi
	addl	$140, %esp
	ret
	.cfi_endproc
	.type	planetpv, @function
	.size	planetpv, . - planetpv
	.section	.rodata.cst8,"aM",@progbits,8
	.align	8
.L135:	.quad	0xbff0000000000000
.L134:	.quad	0x3ff0000000000000
.L133:	.quad	0x3fd9752e50f4b399
.L132:	.quad	0x3fed5c0357681ef3
.L131:	.quad	0x3fe0000000000000
.L130:	.quad	0x3ff0000000000000
.L129:	.quad	0x3fe0000000000000
.L128:	.quad	0x3f919d6d51a6b69a
.L127:	.quad	0x3ff0000000000000
.L126:	.quad	0x3ff0000000000000
.L125:	.quad	0x3fe0000000000000
.L124:	.quad	0x3d719799812dea11
.L122:	.quad	0x3ff0000000000000
.L120:	.quad	0x401921fb54442d18
.L119:	.quad	0x3e7ad7f29abcaf48
.L117:	.quad	0x3e7ad7f29abcaf48
.L116:	.quad	0x3e7ad7f29abcaf48
.L115:	.quad	0x3e7ad7f29abcaf48
.L113:	.quad	0x3fd702a41f2e9970
.L112:	.quad	0x3ed455a5b2ff8f9d
.L111:	.quad	0x40ac200000000000
.L110:	.quad	0x3ed455a5b2ff8f9d
.L109:	.quad	0x40ac200000000000
.L108:	.quad	0x41164b0800000000
.L107:	.quad	0x4142b42c80000000
	.text
	.align	16
	.globl radecdist
radecdist:
	.cfi_startproc
	subl	$44, %esp
	.cfi_adjust_cfa_offset	44
	leal	48(%esp), %edx
	movl	%edx, 16(%esp)
	movl	%ebx, 20(%esp)
	movl	%esi, 24(%esp)
	movl	0(%edx), %esi
	movl	4(%edx), %ebx
	movsd	0(%esi), %xmm2
	movapd	%xmm2, %xmm0
	mulsd	%xmm2, %xmm0
	movsd	8(%esi), %xmm4
	movapd	%xmm4, %xmm5
	mulsd	%xmm5, %xmm4
	addsd	%xmm4, %xmm0
	movsd	16(%esi), %xmm6
	movapd	%xmm6, %xmm7
	mulsd	%xmm7, %xmm6
	addsd	%xmm6, %xmm0
	movsd	%xmm0, 0(%esp)
	call	sqrt
	fstpl	32(%esp)
	movsd	32(%esp), %xmm1
	movsd	%xmm1, 16(%ebx)
	movsd	8(%esi), %xmm0
	movsd	0(%esi), %xmm7
	movsd	%xmm0, 0(%esp)
	movsd	%xmm7, 8(%esp)
	call	atan2
	fstpl	32(%esp)
	movsd	32(%esp), %xmm3
	movsd	.L136, %xmm4 # 3.81971863420548807
	mulsd	%xmm4, %xmm3
	movsd	%xmm3, 0(%ebx)
	xorpd	%xmm1, %xmm1
	comisd	%xmm3, %xmm1
	jbe	.L137
	movsd	.L138, %xmm2 # 24
	addsd	%xmm2, %xmm3
	movsd	%xmm3, 0(%ebx)
.L137:
	movsd	16(%esi), %xmm1
	movsd	16(%ebx), %xmm5
	divsd	%xmm5, %xmm1
	movsd	%xmm1, 0(%esp)
	call	asin
	fstpl	32(%esp)
	movsd	32(%esp), %xmm0
	movsd	.L139, %xmm2 # 57.2957795130823229
	mulsd	%xmm2, %xmm0
	movsd	%xmm0, 8(%ebx)
	movl	20(%esp), %ebx
	movl	24(%esp), %esi
	addl	$44, %esp
	ret
	.cfi_endproc
	.type	radecdist, @function
	.size	radecdist, . - radecdist
	.section	.rodata.cst8,"aM",@progbits,8
	.align	8
.L139:	.quad	0x404ca5dc1a63c1f8
.L138:	.quad	0x4038000000000000
.L136:	.quad	0x400e8ec8a4aeacc4
	.text
	.align	16
test:
	.cfi_startproc
	subl	$124, %esp
	.cfi_adjust_cfa_offset	124
	leal	128(%esp), %edx
	movl	%edx, 24(%esp)
	movl	%ebx, 28(%esp)
	movsd	.L140, %xmm0 # 2451545
	movsd	%xmm0, 32(%esp)
	xorpd	%xmm0, %xmm0
	movsd	%xmm0, 40(%esp)
	xorl	%ebx, %ebx
.L141:
	leal	32(%esp), %edx
	leal	72(%esp), %ecx
	movl	%edx, 0(%esp)
	movl	%ebx, 4(%esp)
	movl	%ecx, 8(%esp)
	call	planetpv
	leal	72(%esp), %eax
	leal	48(%esp), %ecx
	movl	%eax, 0(%esp)
	movl	%ecx, 4(%esp)
	call	radecdist
	leal	__stringlit_1, %edx
	movsd	48(%esp), %xmm0
	movsd	56(%esp), %xmm2
	movl	%edx, 0(%esp)
	movl	%ebx, 4(%esp)
	movsd	%xmm0, 8(%esp)
	movsd	%xmm2, 16(%esp)
	call	printf
	leal	1(%ebx), %ebx
	cmpl	$8, %ebx
	jl	.L141
	movl	28(%esp), %ebx
	addl	$124, %esp
	ret
	.cfi_endproc
	.type	test, @function
	.size	test, . - test
	.section	.rodata.cst8,"aM",@progbits,8
	.align	8
.L140:	.quad	0x4142b42c80000000
	.text
	.align	16
bench:
	.cfi_startproc
	subl	$124, %esp
	.cfi_adjust_cfa_offset	124
	leal	128(%esp), %edx
	movl	%edx, 12(%esp)
	movl	%ebx, 16(%esp)
	movl	%esi, 20(%esp)
	movl	%edi, 24(%esp)
	movl	%ebp, 28(%esp)
	movl	0(%edx), %edi
	xorl	%esi, %esi
.L142:
	cmpl	%edi, %esi
	jge	.L143
	movsd	.L144, %xmm4 # 2451545
	movsd	%xmm4, 32(%esp)
	xorpd	%xmm2, %xmm2
	movsd	%xmm2, 40(%esp)
	xorl	%ebp, %ebp
.L145:
	movsd	32(%esp), %xmm0
	movsd	.L146, %xmm3 # 1
	addsd	%xmm3, %xmm0
	movsd	%xmm0, 32(%esp)
	xorl	%ebx, %ebx
.L147:
	leal	32(%esp), %ecx
	leal	72(%esp), %eax
	movl	%ecx, 0(%esp)
	movl	%ebx, 4(%esp)
	movl	%eax, 8(%esp)
	call	planetpv
	leal	72(%esp), %edx
	leal	48(%esp), %eax
	movl	%edx, 0(%esp)
	movl	%eax, 4(%esp)
	call	radecdist
	leal	1(%ebx), %ebx
	cmpl	$8, %ebx
	jl	.L147
	leal	1(%ebp), %ebp
	cmpl	$36525, %ebp
	jl	.L145
	leal	1(%esi), %esi
	jmp	.L142
.L143:
	movl	16(%esp), %ebx
	movl	20(%esp), %esi
	movl	24(%esp), %edi
	movl	28(%esp), %ebp
	addl	$124, %esp
	ret
	.cfi_endproc
	.type	bench, @function
	.size	bench, . - bench
	.section	.rodata.cst8,"aM",@progbits,8
	.align	8
.L146:	.quad	0x3ff0000000000000
.L144:	.quad	0x4142b42c80000000
	.text
	.align	16
	.globl main
main:
	.cfi_startproc
	subl	$12, %esp
	.cfi_adjust_cfa_offset	12
	leal	16(%esp), %edx
	movl	%edx, 4(%esp)
	call	test
	movl	$5, %eax
	movl	%eax, 0(%esp)
	call	bench
	xorl	%eax, %eax
	addl	$12, %esp
	ret
	.cfi_endproc
	.type	main, @function
	.size	main, . - main
	.section	.rodata
	.align	16
__negd_mask:	.quad   0x8000000000000000, 0
__absd_mask:	.quad   0x7FFFFFFFFFFFFFFF, 0xFFFFFFFFFFFFFFFF
__negs_mask:	.long   0x80000000, 0, 0, 0
__abss_mask:	.long   0x7FFFFFFF, 0xFFFFFFFF, 0xFFFFFFFF, 0xFFFFFFFF
        
